target datalayout = "e-m:e-p270:32:32-p271:32:32-p272:64:64-i64:64-i128:128-f80:128-n8:16:32:64-S128"
target triple = "x86_64-pc-linux-gnu"

%struct.H5F_t = type { ptr, ptr, ptr, ptr, i32, ptr, i8, i8, ptr, i32 }

@.str.2 = private unnamed_addr constant [100 x i8] c"generated/home/dtcxzyw/WorkSpace/Projects/compilers/llvm-opt-benchmark/bench/hdf5/hdf5/src/H5Fint.c\00", align 1
@H5E_FILE_g = external global i64, align 8
@H5E_CANTINIT_g = external global i64, align 8
@H5P_LST_FILE_ACCESS_ID_g = external global i64, align 8
@H5P_LST_FILE_CREATE_ID_g = external global i64, align 8
@__func__.H5F__reopen = private unnamed_addr constant [12 x i8] c"H5F__reopen\00", align 1
@.str.130 = private unnamed_addr constant [22 x i8] c"unable to reopen file\00", align 1

; Function Attrs: nounwind uwtable
define ptr @H5F__reopen(ptr noundef %0) #0 {
  %2 = alloca ptr, align 8
  %3 = alloca ptr, align 8
  %4 = alloca i8, align 1
  store ptr %0, ptr %2, align 8
  store ptr null, ptr %3, align 8
  store i8 0, ptr %4, align 1
  %5 = load ptr, ptr %2, align 8
  %6 = getelementptr inbounds %struct.H5F_t, ptr %5, i32 0, i32 2
  %7 = load ptr, ptr %6, align 8
  %8 = load i64, ptr @H5P_LST_FILE_CREATE_ID_g, align 8
  %9 = load i64, ptr @H5P_LST_FILE_ACCESS_ID_g, align 8
  %10 = call ptr @H5F__new(ptr noundef %7, i32 noundef 0, i64 noundef %8, i64 noundef %9, ptr noundef null)
  store ptr %10, ptr %3, align 8
  %11 = icmp eq ptr null, %10
  br i1 %11, label %12, label %27

12:                                               ; preds = %1
  br label %13

13:                                               ; preds = %12
  br label %14

14:                                               ; preds = %13
  br label %15

15:                                               ; preds = %14
  %16 = load i64, ptr @H5E_FILE_g, align 8
  %17 = load i64, ptr @H5E_CANTINIT_g, align 8
  %18 = call i32 (ptr, ptr, i32, i64, i64, ptr, ...) @H5E_printf_stack(ptr noundef @.str.2, ptr noundef @__func__.H5F__reopen, i32 noundef 2676, i64 noundef %16, i64 noundef %17, ptr noundef @.str.130)
  br label %19

19:                                               ; preds = %15
  store i8 1, ptr %4, align 1
  %20 = load i8, ptr %4, align 1
  %21 = trunc i8 %20 to i1
  %22 = zext i1 %21 to i8
  store i8 %22, ptr %4, align 1
  br label %23

23:                                               ; preds = %19
  br label %24

24:                                               ; preds = %23
  store ptr null, ptr %3, align 8
  br label %40

25:                                               ; No predecessors!
  br label %26

26:                                               ; preds = %25
  br label %27

27:                                               ; preds = %26, %1
  %28 = load ptr, ptr %2, align 8
  %29 = getelementptr inbounds %struct.H5F_t, ptr %28, i32 0, i32 0
  %30 = load ptr, ptr %29, align 8
  %31 = call noalias ptr @H5MM_xstrdup(ptr noundef %30)
  %32 = load ptr, ptr %3, align 8
  %33 = getelementptr inbounds %struct.H5F_t, ptr %32, i32 0, i32 0
  store ptr %31, ptr %33, align 8
  %34 = load ptr, ptr %2, align 8
  %35 = getelementptr inbounds %struct.H5F_t, ptr %34, i32 0, i32 1
  %36 = load ptr, ptr %35, align 8
  %37 = call noalias ptr @H5MM_xstrdup(ptr noundef %36)
  %38 = load ptr, ptr %3, align 8
  %39 = getelementptr inbounds %struct.H5F_t, ptr %38, i32 0, i32 1
  store ptr %37, ptr %39, align 8
  br label %40

40:                                               ; preds = %27, %24
  %41 = load ptr, ptr %3, align 8
  ret ptr %41
}