; Function Attrs: nounwind uwtable
define ptr @H5F__reopen(ptr nocapture noundef readonly %0) local_unnamed_addr #0 {
  %2 = getelementptr inbounds i8, ptr %0, i64 16
  %3 = load ptr, ptr %2, align 8
  %4 = load i64, ptr @H5P_LST_FILE_CREATE_ID_g, align 8
  %5 = load i64, ptr @H5P_LST_FILE_ACCESS_ID_g, align 8
  %6 = tail call fastcc ptr @H5F__new(ptr noundef %3, i32 noundef 0, i64 noundef %4, i64 noundef %5, ptr noundef null)
  %7 = icmp eq ptr %6, null
  br i1 %7, label %8, label %12

8:                                                ; preds = %1
  %9 = load i64, ptr @H5E_FILE_g, align 8
  %10 = load i64, ptr @H5E_CANTINIT_g, align 8
  %11 = tail call i32 (ptr, ptr, i32, i64, i64, ptr, ...) @H5E_printf_stack(ptr noundef nonnull @.str.2, ptr noundef nonnull @__func__.H5F__reopen, i32 noundef 2676, i64 noundef %9, i64 noundef %10, ptr noundef nonnull @.str.130) #22
  br label %19

12:                                               ; preds = %1
  %13 = load ptr, ptr %0, align 8
  %14 = tail call noalias ptr @H5MM_xstrdup(ptr noundef %13) #22
  store ptr %14, ptr %6, align 8
  %15 = getelementptr inbounds i8, ptr %0, i64 8
  %16 = load ptr, ptr %15, align 8
  %17 = tail call noalias ptr @H5MM_xstrdup(ptr noundef %16) #22
  %18 = getelementptr inbounds i8, ptr %6, i64 8
  store ptr %17, ptr %18, align 8
  br label %19

19:                                               ; preds = %12, %8
  ret ptr %6
}